; Function Attrs: nounwind uwtable
define hidden void @ft_lzwstate_done(ptr noundef initializes((0, 8), (24, 33), (40, 48), (60, 64), (120, 124)) %0) local_unnamed_addr #0 {
  %2 = getelementptr inbounds nuw i8, ptr %0, i64 208
  %3 = load ptr, ptr %2, align 8, !tbaa !25
  %4 = getelementptr inbounds nuw i8, ptr %0, i64 4
  store i32 0, ptr %4, align 4, !tbaa !34
  %5 = getelementptr inbounds nuw i8, ptr %0, i64 24
  %6 = getelementptr inbounds nuw i8, ptr %0, i64 40
  store i64 0, ptr %6, align 8, !tbaa !35
  %7 = getelementptr inbounds nuw i8, ptr %0, i64 120
  store i32 0, ptr %7, align 8, !tbaa !36
  %8 = getelementptr inbounds nuw i8, ptr %0, i64 60
  tail call void @llvm.memset.p0.i64(ptr noundef nonnull align 8 dereferenceable(9) %5, i8 0, i64 9, i1 false)
  store i32 9, ptr %8, align 4, !tbaa !28
  store i32 0, ptr %0, align 8, !tbaa !37
  %9 = getelementptr inbounds nuw i8, ptr %0, i64 112
  %10 = load ptr, ptr %9, align 8, !tbaa !26
  %11 = getelementptr inbounds nuw i8, ptr %0, i64 136
  %.not = icmp eq ptr %10, %11
  br i1 %.not, label %13, label %12

12:                                               ; preds = %1
  tail call void @ft_mem_free(ptr noundef %3, ptr noundef %10) #8
  store ptr null, ptr %9, align 8, !tbaa !26
  br label %13

13:                                               ; preds = %1, %12
  %14 = getelementptr inbounds nuw i8, ptr %0, i64 88
  %15 = load ptr, ptr %14, align 8, !tbaa !38
  tail call void @ft_mem_free(ptr noundef %3, ptr noundef %15) #8
  tail call void @llvm.memset.p0.i64(ptr noundef nonnull align 8 dereferenceable(216) %0, i8 0, i64 216, i1 false)
  ret void
}